; ModuleID = '31/1642.c'
source_filename = "31/1642.c"
target datalayout = "e-m:e-p270:32:32-p271:32:32-p272:64:64-i64:64-f80:128-n8:16:32:64-S128"
target triple = "x86_64-pc-linux-gnu"

%struct.student = type { [10 x i8], [20 x i8], i8, i32, [20 x i8], [50 x i8], %struct.student* }

@.str = private unnamed_addr constant [3 x i8] c"%s\00", align 1
@.str.1 = private unnamed_addr constant [15 x i8] c"%s %c %d %s %s\00", align 1
@.str.2 = private unnamed_addr constant [19 x i8] c"%s %s %c %d %s %s\0A\00", align 1

; Function Attrs: noinline nounwind uwtable
define dso_local void @main() #0 {
  %1 = alloca %struct.student*, align 8
  %2 = alloca %struct.student*, align 8
  %3 = alloca %struct.student*, align 8
  %4 = alloca %struct.student*, align 8
  %5 = alloca i32, align 4
  %6 = call noalias i8* @malloc(i64 120) #3
  %7 = bitcast i8* %6 to %struct.student*
  store %struct.student* %7, %struct.student** %4, align 8
  %8 = load %struct.student*, %struct.student** %4, align 8
  %9 = getelementptr inbounds %struct.student, %struct.student* %8, i32 0, i32 6
  store %struct.student* null, %struct.student** %9, align 8
  %10 = call noalias i8* @malloc(i64 120) #3
  %11 = bitcast i8* %10 to %struct.student*
  store %struct.student* %11, %struct.student** %1, align 8
  %12 = load %struct.student*, %struct.student** %1, align 8
  %13 = getelementptr inbounds %struct.student, %struct.student* %12, i32 0, i32 6
  store %struct.student* null, %struct.student** %13, align 8
  store i32 0, i32* %5, align 4
  br label %14

14:                                               ; preds = %57, %0
  %15 = load %struct.student*, %struct.student** %1, align 8
  %16 = getelementptr inbounds %struct.student, %struct.student* %15, i32 0, i32 6
  %17 = load %struct.student*, %struct.student** %16, align 8
  store %struct.student* %17, %struct.student** %2, align 8
  %18 = call noalias i8* @malloc(i64 120) #3
  %19 = bitcast i8* %18 to %struct.student*
  store %struct.student* %19, %struct.student** %3, align 8
  %20 = load %struct.student*, %struct.student** %3, align 8
  %21 = getelementptr inbounds %struct.student, %struct.student* %20, i32 0, i32 6
  store %struct.student* null, %struct.student** %21, align 8
  %22 = load %struct.student*, %struct.student** %3, align 8
  %23 = getelementptr inbounds %struct.student, %struct.student* %22, i32 0, i32 0
  %24 = getelementptr inbounds [10 x i8], [10 x i8]* %23, i64 0, i64 0
  %25 = call i32 (i8*, ...) @__isoc99_scanf(i8* getelementptr inbounds ([3 x i8], [3 x i8]* @.str, i64 0, i64 0), i8* %24)
  %26 = load %struct.student*, %struct.student** %3, align 8
  %27 = getelementptr inbounds %struct.student, %struct.student* %26, i32 0, i32 0
  %28 = getelementptr inbounds [10 x i8], [10 x i8]* %27, i64 0, i64 0
  %29 = load i8, i8* %28, align 8
  %30 = sext i8 %29 to i32
  %31 = icmp eq i32 %30, 101
  br i1 %31, label %32, label %33

32:                                               ; preds = %14
  br label %60

33:                                               ; preds = %14
  %34 = load %struct.student*, %struct.student** %3, align 8
  %35 = getelementptr inbounds %struct.student, %struct.student* %34, i32 0, i32 1
  %36 = getelementptr inbounds [20 x i8], [20 x i8]* %35, i64 0, i64 0
  %37 = load %struct.student*, %struct.student** %3, align 8
  %38 = getelementptr inbounds %struct.student, %struct.student* %37, i32 0, i32 2
  %39 = load %struct.student*, %struct.student** %3, align 8
  %40 = getelementptr inbounds %struct.student, %struct.student* %39, i32 0, i32 3
  %41 = load %struct.student*, %struct.student** %3, align 8
  %42 = getelementptr inbounds %struct.student, %struct.student* %41, i32 0, i32 4
  %43 = getelementptr inbounds [20 x i8], [20 x i8]* %42, i64 0, i64 0
  %44 = load %struct.student*, %struct.student** %3, align 8
  %45 = getelementptr inbounds %struct.student, %struct.student* %44, i32 0, i32 5
  %46 = getelementptr inbounds [50 x i8], [50 x i8]* %45, i64 0, i64 0
  %47 = call i32 (i8*, ...) @__isoc99_scanf(i8* getelementptr inbounds ([15 x i8], [15 x i8]* @.str.1, i64 0, i64 0), i8* %36, i8* %38, i32* %40, i8* %43, i8* %46)
  %48 = load %struct.student*, %struct.student** %2, align 8
  %49 = load %struct.student*, %struct.student** %4, align 8
  %50 = getelementptr inbounds %struct.student, %struct.student* %49, i32 0, i32 6
  store %struct.student* %48, %struct.student** %50, align 8
  %51 = load %struct.student*, %struct.student** %3, align 8
  %52 = load %struct.student*, %struct.student** %1, align 8
  %53 = getelementptr inbounds %struct.student, %struct.student* %52, i32 0, i32 6
  store %struct.student* %51, %struct.student** %53, align 8
  %54 = load %struct.student*, %struct.student** %2, align 8
  %55 = load %struct.student*, %struct.student** %3, align 8
  %56 = getelementptr inbounds %struct.student, %struct.student* %55, i32 0, i32 6
  store %struct.student* %54, %struct.student** %56, align 8
  br label %57

57:                                               ; preds = %33
  %58 = load i32, i32* %5, align 4
  %59 = add nsw i32 %58, 1
  store i32 %59, i32* %5, align 4
  br label %14

60:                                               ; preds = %32
  %61 = load %struct.student*, %struct.student** %2, align 8
  %62 = load %struct.student*, %struct.student** %1, align 8
  %63 = getelementptr inbounds %struct.student, %struct.student* %62, i32 0, i32 6
  store %struct.student* %61, %struct.student** %63, align 8
  br label %64

64:                                               ; preds = %67, %60
  %65 = load %struct.student*, %struct.student** %2, align 8
  %66 = icmp ne %struct.student* %65, null
  br i1 %66, label %67, label %91

67:                                               ; preds = %64
  %68 = load %struct.student*, %struct.student** %2, align 8
  %69 = getelementptr inbounds %struct.student, %struct.student* %68, i32 0, i32 0
  %70 = getelementptr inbounds [10 x i8], [10 x i8]* %69, i64 0, i64 0
  %71 = load %struct.student*, %struct.student** %2, align 8
  %72 = getelementptr inbounds %struct.student, %struct.student* %71, i32 0, i32 1
  %73 = getelementptr inbounds [20 x i8], [20 x i8]* %72, i64 0, i64 0
  %74 = load %struct.student*, %struct.student** %2, align 8
  %75 = getelementptr inbounds %struct.student, %struct.student* %74, i32 0, i32 2
  %76 = load i8, i8* %75, align 2
  %77 = sext i8 %76 to i32
  %78 = load %struct.student*, %struct.student** %2, align 8
  %79 = getelementptr inbounds %struct.student, %struct.student* %78, i32 0, i32 3
  %80 = load i32, i32* %79, align 8
  %81 = load %struct.student*, %struct.student** %2, align 8
  %82 = getelementptr inbounds %struct.student, %struct.student* %81, i32 0, i32 4
  %83 = getelementptr inbounds [20 x i8], [20 x i8]* %82, i64 0, i64 0
  %84 = load %struct.student*, %struct.student** %2, align 8
  %85 = getelementptr inbounds %struct.student, %struct.student* %84, i32 0, i32 5
  %86 = getelementptr inbounds [50 x i8], [50 x i8]* %85, i64 0, i64 0
  %87 = call i32 (i8*, ...) @printf(i8* getelementptr inbounds ([19 x i8], [19 x i8]* @.str.2, i64 0, i64 0), i8* %70, i8* %73, i32 %77, i32 %80, i8* %83, i8* %86)
  %88 = load %struct.student*, %struct.student** %2, align 8
  %89 = getelementptr inbounds %struct.student, %struct.student* %88, i32 0, i32 6
  %90 = load %struct.student*, %struct.student** %89, align 8
  store %struct.student* %90, %struct.student** %2, align 8
  br label %64

91:                                               ; preds = %64
  ret void
}

; Function Attrs: nounwind
declare dso_local noalias i8* @malloc(i64) #1

declare dso_local i32 @__isoc99_scanf(i8*, ...) #2

declare dso_local i32 @printf(i8*, ...) #2


!llvm.module.flags = !{!0}
!llvm.ident = !{!1}

!0 = !{i32 1, !"wchar_size", i32 4}
!1 = !{!"clang version 10.0.0-4ubuntu1 "}
