; ModuleID = 'source-C-CXX/30/1642.c'
source_filename = "source-C-CXX/30/1642.c"
target datalayout = "e-m:e-p270:32:32-p271:32:32-p272:64:64-i64:64-f80:128-n8:16:32:64-S128"
target triple = "x86_64-pc-linux-gnu"

%struct.student = type { [10 x i8], [20 x i8], i8, i32, [20 x i8], [50 x i8], %struct.student* }

@.str = private unnamed_addr constant [3 x i8] c"%s\00", align 1
@.str.1 = private unnamed_addr constant [15 x i8] c"%s %c %d %s %s\00", align 1
@.str.2 = private unnamed_addr constant [19 x i8] c"%s %s %c %d %s %s\0A\00", align 1

; Function Attrs: nofree nounwind sspstrong uwtable
define dso_local void @main() local_unnamed_addr #0 {
  %1 = tail call noalias align 16 dereferenceable_or_null(120) i8* @malloc(i64 120) #3
  %2 = bitcast i8* %1 to %struct.student*
  %3 = getelementptr inbounds %struct.student, %struct.student* %2, i64 0, i32 6
  store %struct.student* null, %struct.student** %3, align 16, !tbaa !5
  %4 = getelementptr inbounds %struct.student, %struct.student* %2, i64 0, i32 0, i64 0
  %5 = tail call i32 (i8*, ...) @__isoc99_scanf(i8* getelementptr inbounds ([3 x i8], [3 x i8]* @.str, i64 0, i64 0), i8* %4)
  %6 = load i8, i8* %4, align 16, !tbaa !11
  %7 = icmp eq i8 %6, 101
  br i1 %7, label %46, label %12

8:                                                ; preds = %12
  %9 = icmp eq i8* %15, null
  br i1 %9, label %46, label %10

10:                                               ; preds = %8
  %11 = bitcast i8* %15 to %struct.student*
  br label %31

12:                                               ; preds = %0, %12
  %13 = phi %struct.student** [ %26, %12 ], [ %3, %0 ]
  %14 = phi %struct.student* [ %25, %12 ], [ %2, %0 ]
  %15 = phi i8* [ %24, %12 ], [ %1, %0 ]
  %16 = phi %struct.student* [ %23, %12 ], [ null, %0 ]
  %17 = getelementptr inbounds %struct.student, %struct.student* %14, i64 0, i32 1, i64 0
  %18 = getelementptr inbounds %struct.student, %struct.student* %14, i64 0, i32 2
  %19 = getelementptr inbounds %struct.student, %struct.student* %14, i64 0, i32 3
  %20 = getelementptr inbounds %struct.student, %struct.student* %14, i64 0, i32 4, i64 0
  %21 = getelementptr inbounds %struct.student, %struct.student* %14, i64 0, i32 5, i64 0
  %22 = tail call i32 (i8*, ...) @__isoc99_scanf(i8* getelementptr inbounds ([15 x i8], [15 x i8]* @.str.1, i64 0, i64 0), i8* nonnull %17, i8* nonnull %18, i32* nonnull %19, i8* nonnull %20, i8* nonnull %21)
  store %struct.student* %16, %struct.student** %13, align 16, !tbaa !5
  %23 = bitcast i8* %15 to %struct.student*
  %24 = tail call noalias align 16 dereferenceable_or_null(120) i8* @malloc(i64 120) #3
  %25 = bitcast i8* %24 to %struct.student*
  %26 = getelementptr inbounds %struct.student, %struct.student* %25, i64 0, i32 6
  store %struct.student* null, %struct.student** %26, align 16, !tbaa !5
  %27 = getelementptr inbounds %struct.student, %struct.student* %25, i64 0, i32 0, i64 0
  %28 = tail call i32 (i8*, ...) @__isoc99_scanf(i8* getelementptr inbounds ([3 x i8], [3 x i8]* @.str, i64 0, i64 0), i8* %27)
  %29 = load i8, i8* %27, align 16, !tbaa !11
  %30 = icmp eq i8 %29, 101
  br i1 %30, label %8, label %12

31:                                               ; preds = %10, %31
  %32 = phi %struct.student* [ %44, %31 ], [ %11, %10 ]
  %33 = getelementptr inbounds %struct.student, %struct.student* %32, i64 0, i32 0, i64 0
  %34 = getelementptr inbounds %struct.student, %struct.student* %32, i64 0, i32 1, i64 0
  %35 = getelementptr inbounds %struct.student, %struct.student* %32, i64 0, i32 2
  %36 = load i8, i8* %35, align 2, !tbaa !12
  %37 = sext i8 %36 to i32
  %38 = getelementptr inbounds %struct.student, %struct.student* %32, i64 0, i32 3
  %39 = load i32, i32* %38, align 8, !tbaa !13
  %40 = getelementptr inbounds %struct.student, %struct.student* %32, i64 0, i32 4, i64 0
  %41 = getelementptr inbounds %struct.student, %struct.student* %32, i64 0, i32 5, i64 0
  %42 = tail call i32 (i8*, ...) @printf(i8* nonnull dereferenceable(1) getelementptr inbounds ([19 x i8], [19 x i8]* @.str.2, i64 0, i64 0), i8* nonnull %33, i8* nonnull %34, i32 %37, i32 %39, i8* nonnull %40, i8* nonnull %41)
  %43 = getelementptr inbounds %struct.student, %struct.student* %32, i64 0, i32 6
  %44 = load %struct.student*, %struct.student** %43, align 8, !tbaa !5
  %45 = icmp eq %struct.student* %44, null
  br i1 %45, label %46, label %31, !llvm.loop !14

46:                                               ; preds = %31, %0, %8
  ret void
}

; Function Attrs: inaccessiblememonly mustprogress nofree nounwind willreturn
declare noalias noundef align 16 i8* @malloc(i64 noundef) local_unnamed_addr #1

; Function Attrs: nofree nounwind
declare noundef i32 @__isoc99_scanf(i8* nocapture noundef readonly, ...) local_unnamed_addr #2

; Function Attrs: nofree nounwind
declare noundef i32 @printf(i8* nocapture noundef readonly, ...) local_unnamed_addr #2


!llvm.module.flags = !{!0, !1, !2, !3}
!llvm.ident = !{!4}

!0 = !{i32 1, !"wchar_size", i32 4}
!1 = !{i32 7, !"PIC Level", i32 2}
!2 = !{i32 7, !"PIE Level", i32 2}
!3 = !{i32 7, !"uwtable", i32 1}
!4 = !{!"clang version 13.0.0"}
!5 = !{!6, !10, i64 112}
!6 = !{!"student", !7, i64 0, !7, i64 10, !7, i64 30, !9, i64 32, !7, i64 36, !7, i64 56, !10, i64 112}
!7 = !{!"omnipotent char", !8, i64 0}
!8 = !{!"Simple C/C++ TBAA"}
!9 = !{!"int", !7, i64 0}
!10 = !{!"any pointer", !7, i64 0}
!11 = !{!7, !7, i64 0}
!12 = !{!6, !7, i64 30}
!13 = !{!6, !9, i64 32}
!14 = distinct !{!14, !15}
!15 = !{!"llvm.loop.mustprogress"}
